; Function Attrs: mustprogress uwtable
define void @_ZN3gmx19SelectionCollection19setReferencePosTypeEPKc(ptr nocapture noundef nonnull readonly align 8 dereferenceable(8) %0, ptr noundef %1) local_unnamed_addr #0 align 2 {
  %3 = alloca i32, align 4
  %4 = alloca i32, align 4
  %.not = icmp eq ptr %1, null
  br i1 %.not, label %5, label %6

5:                                                ; preds = %2
  tail call void @_ZN3gmx8internal13assertHandlerEPKcS2_S2_S2_i(ptr noundef nonnull @.str.19, ptr noundef nonnull @.str.20, ptr noundef nonnull @"__PRETTY_FUNCTION__._ZZN3gmx19SelectionCollection19setReferencePosTypeEPKcENK3$_0clEv", ptr noundef nonnull @.str.1, i32 noundef 614) #26
  unreachable

6:                                                ; preds = %2
  call void @_ZN3gmx29PositionCalculationCollection12typeFromEnumEPKcP11e_poscalc_tPi(ptr noundef nonnull %1, ptr noundef nonnull %3, ptr noundef nonnull %4)
  %7 = load ptr, ptr %0, align 8
  %8 = getelementptr inbounds i8, ptr %7, i64 120
  %9 = call noundef nonnull align 8 dereferenceable(32) ptr @_ZNSt7__cxx1112basic_stringIcSt11char_traitsIcESaIcEEaSEPKc(ptr noundef nonnull align 8 dereferenceable(32) %8, ptr noundef nonnull %1)
  ret void
}